target datalayout = "e-m:e-p270:32:32-p271:32:32-p272:64:64-i64:64-f80:128-n8:16:32:64-S128"
target triple = "x86_64-pc-linux-gnu"

@.str = private unnamed_addr constant [4 x i8] c"%s\0A\00", align 1

; Function Attrs: noinline nounwind uwtable
define dso_local i32 @main() #0 {
  %1 = alloca i32, align 4
  %2 = alloca [500 x i8], align 16
  %3 = alloca [30 x [20 x i8]], align 16
  %4 = alloca i32, align 4
  %5 = alloca i32, align 4
  %6 = alloca i32, align 4
  %7 = alloca i32, align 4
  %8 = alloca i32, align 4
  %9 = alloca [50 x i32], align 16
  store i32 0, i32* %1, align 4
  %10 = bitcast [500 x i8]* %2 to i8*
  call void @llvm.memset.p0i8.i64(i8* align 16 %10, i8 0, i64 500, i1 false)
  %11 = bitcast [30 x [20 x i8]]* %3 to i8*
  call void @llvm.memset.p0i8.i64(i8* align 16 %11, i8 0, i64 600, i1 false)
  store i32 0, i32* %7, align 4
  store i32 0, i32* %8, align 4
  %12 = getelementptr inbounds [500 x i8], [500 x i8]* %2, i64 0, i64 0
  %13 = call i32 (i8*, ...) bitcast (i32 (...)* @gets to i32 (i8*, ...)*)(i8* %12)
  store i32 0, i32* %4, align 4
  br label %14

14:                                               ; preds = %37, %0
  %15 = load i32, i32* %4, align 4
  %16 = icmp slt i32 %15, 500
  br i1 %16, label %17, label %40

17:                                               ; preds = %14
  %18 = load i32, i32* %4, align 4
  %19 = sext i32 %18 to i64
  %20 = getelementptr inbounds [500 x i8], [500 x i8]* %2, i64 0, i64 %19
  %21 = load i8, i8* %20, align 1
  %22 = sext i8 %21 to i32
  %23 = icmp eq i32 %22, 32
  br i1 %23, label %24, label %36

24:                                               ; preds = %17
  %25 = load i32, i32* %4, align 4
  %26 = add nsw i32 %25, 1
  %27 = sext i32 %26 to i64
  %28 = getelementptr inbounds [500 x i8], [500 x i8]* %2, i64 0, i64 %27
  %29 = load i8, i8* %28, align 1
  %30 = sext i8 %29 to i32
  %31 = icmp eq i32 %30, 0
  br i1 %31, label %32, label %36

32:                                               ; preds = %24
  %33 = load i32, i32* %4, align 4
  %34 = sext i32 %33 to i64
  %35 = getelementptr inbounds [500 x i8], [500 x i8]* %2, i64 0, i64 %34
  store i8 0, i8* %35, align 1
  br label %36

36:                                               ; preds = %32, %24, %17
  br label %37

37:                                               ; preds = %36
  %38 = load i32, i32* %4, align 4
  %39 = add nsw i32 %38, 1
  store i32 %39, i32* %4, align 4
  br label %14

40:                                               ; preds = %14
  store i32 0, i32* %4, align 4
  br label %41

41:                                               ; preds = %68, %40
  %42 = load i32, i32* %4, align 4
  %43 = icmp slt i32 %42, 500
  br i1 %43, label %44, label %71

44:                                               ; preds = %41
  %45 = load i32, i32* %4, align 4
  %46 = sext i32 %45 to i64
  %47 = getelementptr inbounds [500 x i8], [500 x i8]* %2, i64 0, i64 %46
  %48 = load i8, i8* %47, align 1
  %49 = sext i8 %48 to i32
  %50 = icmp eq i32 %49, 32
  br i1 %50, label %51, label %54

51:                                               ; preds = %44
  %52 = load i32, i32* %7, align 4
  %53 = add nsw i32 %52, 1
  store i32 %53, i32* %7, align 4
  store i32 0, i32* %8, align 4
  br label %67

54:                                               ; preds = %44
  %55 = load i32, i32* %4, align 4
  %56 = sext i32 %55 to i64
  %57 = getelementptr inbounds [500 x i8], [500 x i8]* %2, i64 0, i64 %56
  %58 = load i8, i8* %57, align 1
  %59 = load i32, i32* %7, align 4
  %60 = sext i32 %59 to i64
  %61 = getelementptr inbounds [30 x [20 x i8]], [30 x [20 x i8]]* %3, i64 0, i64 %60
  %62 = load i32, i32* %8, align 4
  %63 = sext i32 %62 to i64
  %64 = getelementptr inbounds [20 x i8], [20 x i8]* %61, i64 0, i64 %63
  store i8 %58, i8* %64, align 1
  %65 = load i32, i32* %8, align 4
  %66 = add nsw i32 %65, 1
  store i32 %66, i32* %8, align 4
  br label %67

67:                                               ; preds = %54, %51
  br label %68

68:                                               ; preds = %67
  %69 = load i32, i32* %4, align 4
  %70 = add nsw i32 %69, 1
  store i32 %70, i32* %4, align 4
  br label %41

71:                                               ; preds = %41
  store i32 0, i32* %5, align 4
  br label %72

72:                                               ; preds = %86, %71
  %73 = load i32, i32* %5, align 4
  %74 = load i32, i32* %7, align 4
  %75 = icmp sle i32 %73, %74
  br i1 %75, label %76, label %89

76:                                               ; preds = %72
  %77 = load i32, i32* %5, align 4
  %78 = sext i32 %77 to i64
  %79 = getelementptr inbounds [30 x [20 x i8]], [30 x [20 x i8]]* %3, i64 0, i64 %78
  %80 = getelementptr inbounds [20 x i8], [20 x i8]* %79, i64 0, i64 0
  %81 = call i64 @strlen(i8* %80) #4
  %82 = trunc i64 %81 to i32
  %83 = load i32, i32* %5, align 4
  %84 = sext i32 %83 to i64
  %85 = getelementptr inbounds [50 x i32], [50 x i32]* %9, i64 0, i64 %84
  store i32 %82, i32* %85, align 4
  br label %86

86:                                               ; preds = %76
  %87 = load i32, i32* %5, align 4
  %88 = add nsw i32 %87, 1
  store i32 %88, i32* %5, align 4
  br label %72

89:                                               ; preds = %72
  store i32 0, i32* %4, align 4
  br label %90

90:                                               ; preds = %127, %89
  %91 = load i32, i32* %4, align 4
  %92 = load i32, i32* %7, align 4
  %93 = icmp sle i32 %91, %92
  br i1 %93, label %94, label %130

94:                                               ; preds = %90
  store i32 0, i32* %8, align 4
  store i32 0, i32* %5, align 4
  br label %95

95:                                               ; preds = %113, %94
  %96 = load i32, i32* %5, align 4
  %97 = load i32, i32* %7, align 4
  %98 = icmp sle i32 %96, %97
  br i1 %98, label %99, label %116

99:                                               ; preds = %95
  %100 = load i32, i32* %4, align 4
  %101 = sext i32 %100 to i64
  %102 = getelementptr inbounds [50 x i32], [50 x i32]* %9, i64 0, i64 %101
  %103 = load i32, i32* %102, align 4
  %104 = load i32, i32* %5, align 4
  %105 = sext i32 %104 to i64
  %106 = getelementptr inbounds [50 x i32], [50 x i32]* %9, i64 0, i64 %105
  %107 = load i32, i32* %106, align 4
  %108 = icmp sge i32 %103, %107
  br i1 %108, label %109, label %112

109:                                              ; preds = %99
  %110 = load i32, i32* %8, align 4
  %111 = add nsw i32 %110, 1
  store i32 %111, i32* %8, align 4
  br label %112

112:                                              ; preds = %109, %99
  br label %113

113:                                              ; preds = %112
  %114 = load i32, i32* %5, align 4
  %115 = add nsw i32 %114, 1
  store i32 %115, i32* %5, align 4
  br label %95

116:                                              ; preds = %95
  %117 = load i32, i32* %8, align 4
  %118 = load i32, i32* %7, align 4
  %119 = icmp sgt i32 %117, %118
  br i1 %119, label %120, label %126

120:                                              ; preds = %116
  %121 = load i32, i32* %4, align 4
  %122 = sext i32 %121 to i64
  %123 = getelementptr inbounds [30 x [20 x i8]], [30 x [20 x i8]]* %3, i64 0, i64 %122
  %124 = getelementptr inbounds [20 x i8], [20 x i8]* %123, i64 0, i64 0
  %125 = call i32 (i8*, ...) @printf(i8* getelementptr inbounds ([4 x i8], [4 x i8]* @.str, i64 0, i64 0), i8* %124)
  br label %130

126:                                              ; preds = %116
  br label %127

127:                                              ; preds = %126
  %128 = load i32, i32* %4, align 4
  %129 = add nsw i32 %128, 1
  store i32 %129, i32* %4, align 4
  br label %90

130:                                              ; preds = %120, %90
  store i32 0, i32* %4, align 4
  br label %131

131:                                              ; preds = %168, %130
  %132 = load i32, i32* %4, align 4
  %133 = load i32, i32* %7, align 4
  %134 = icmp sle i32 %132, %133
  br i1 %134, label %135, label %171

135:                                              ; preds = %131
  store i32 0, i32* %8, align 4
  store i32 0, i32* %5, align 4
  br label %136

136:                                              ; preds = %154, %135
  %137 = load i32, i32* %5, align 4
  %138 = load i32, i32* %7, align 4
  %139 = icmp sle i32 %137, %138
  br i1 %139, label %140, label %157

140:                                              ; preds = %136
  %141 = load i32, i32* %4, align 4
  %142 = sext i32 %141 to i64
  %143 = getelementptr inbounds [50 x i32], [50 x i32]* %9, i64 0, i64 %142
  %144 = load i32, i32* %143, align 4
  %145 = load i32, i32* %5, align 4
  %146 = sext i32 %145 to i64
  %147 = getelementptr inbounds [50 x i32], [50 x i32]* %9, i64 0, i64 %146
  %148 = load i32, i32* %147, align 4
  %149 = icmp sle i32 %144, %148
  br i1 %149, label %150, label %153

150:                                              ; preds = %140
  %151 = load i32, i32* %8, align 4
  %152 = add nsw i32 %151, 1
  store i32 %152, i32* %8, align 4
  br label %153

153:                                              ; preds = %150, %140
  br label %154

154:                                              ; preds = %153
  %155 = load i32, i32* %5, align 4
  %156 = add nsw i32 %155, 1
  store i32 %156, i32* %5, align 4
  br label %136

157:                                              ; preds = %136
  %158 = load i32, i32* %8, align 4
  %159 = load i32, i32* %7, align 4
  %160 = icmp sgt i32 %158, %159
  br i1 %160, label %161, label %167

161:                                              ; preds = %157
  %162 = load i32, i32* %4, align 4
  %163 = sext i32 %162 to i64
  %164 = getelementptr inbounds [30 x [20 x i8]], [30 x [20 x i8]]* %3, i64 0, i64 %163
  %165 = getelementptr inbounds [20 x i8], [20 x i8]* %164, i64 0, i64 0
  %166 = call i32 (i8*, ...) @printf(i8* getelementptr inbounds ([4 x i8], [4 x i8]* @.str, i64 0, i64 0), i8* %165)
  br label %171

167:                                              ; preds = %157
  br label %168

168:                                              ; preds = %167
  %169 = load i32, i32* %4, align 4
  %170 = add nsw i32 %169, 1
  store i32 %170, i32* %4, align 4
  br label %131

171:                                              ; preds = %161, %131
  %172 = load i32, i32* %1, align 4
  ret i32 %172
}